target datalayout = "e-m:e-p270:32:32-p271:32:32-p272:64:64-i64:64-i128:128-f80:128-n8:16:32:64-S128"
target triple = "x86_64-pc-linux-gnu"

%"class.std::__shared_count" = type { ptr }
%"class.std::vector.7" = type { %"struct.std::_Vector_base.8" }
%"struct.std::_Vector_base.8" = type { %"struct.std::_Vector_base<cv::util::variant<cv::util::monostate, cv::GMatDesc, cv::GScalarDesc, cv::GArrayDesc, cv::GOpaqueDesc, cv::GFrameDesc>, std::allocator<cv::util::variant<cv::util::monostate, cv::GMatDesc, cv::GScalarDesc, cv::GArrayDesc, cv::GOpaqueDesc, cv::GFrameDesc>>>::_Vector_impl" }
%"struct.std::_Vector_base<cv::util::variant<cv::util::monostate, cv::GMatDesc, cv::GScalarDesc, cv::GArrayDesc, cv::GOpaqueDesc, cv::GFrameDesc>, std::allocator<cv::util::variant<cv::util::monostate, cv::GMatDesc, cv::GScalarDesc, cv::GArrayDesc, cv::GOpaqueDesc, cv::GFrameDesc>>>::_Vector_impl" = type { %"struct.std::_Vector_base<cv::util::variant<cv::util::monostate, cv::GMatDesc, cv::GScalarDesc, cv::GArrayDesc, cv::GOpaqueDesc, cv::GFrameDesc>, std::allocator<cv::util::variant<cv::util::monostate, cv::GMatDesc, cv::GScalarDesc, cv::GArrayDesc, cv::GOpaqueDesc, cv::GFrameDesc>>>::_Vector_impl_data" }
%"struct.std::_Vector_base<cv::util::variant<cv::util::monostate, cv::GMatDesc, cv::GScalarDesc, cv::GArrayDesc, cv::GOpaqueDesc, cv::GFrameDesc>, std::allocator<cv::util::variant<cv::util::monostate, cv::GMatDesc, cv::GScalarDesc, cv::GArrayDesc, cv::GOpaqueDesc, cv::GFrameDesc>>>::_Vector_impl_data" = type { ptr, ptr, ptr }
%"struct.std::__detail::_Hash_node_base" = type { ptr }
%"struct.std::__detail::_Prime_rehash_policy" = type { float, i64 }
%"class.cv::gimpl::GCompiler" = type { ptr, %"class.std::vector.7", %"class.std::vector.99", %"class.ade::ExecutionEngine", %"class.cv::GKernelPackage", %"struct.cv::gapi::GNetPackage", %"class.std::vector.182" }
%"class.std::vector.99" = type { %"struct.std::_Vector_base.100" }
%"struct.std::_Vector_base.100" = type { %"struct.std::_Vector_base<cv::GCompileArg, std::allocator<cv::GCompileArg>>::_Vector_impl" }
%"struct.std::_Vector_base<cv::GCompileArg, std::allocator<cv::GCompileArg>>::_Vector_impl" = type { %"struct.std::_Vector_base<cv::GCompileArg, std::allocator<cv::GCompileArg>>::_Vector_impl_data" }
%"struct.std::_Vector_base<cv::GCompileArg, std::allocator<cv::GCompileArg>>::_Vector_impl_data" = type { ptr, ptr, ptr }
%"class.ade::ExecutionEngine" = type { %"class.std::vector.104", %"struct.ade::ExecutionEngine::CallbackList", %"struct.ade::ExecutionEngine::CallbackList", %"struct.ade::ExecutionEngine::LazyPasses", %"class.std::unordered_set", %"class.ade::PassManager" }
%"class.std::vector.104" = type { %"struct.std::_Vector_base.105" }
%"struct.std::_Vector_base.105" = type { %"struct.std::_Vector_base<std::unique_ptr<ade::ExecutionBackend>, std::allocator<std::unique_ptr<ade::ExecutionBackend>>>::_Vector_impl" }
%"struct.std::_Vector_base<std::unique_ptr<ade::ExecutionBackend>, std::allocator<std::unique_ptr<ade::ExecutionBackend>>>::_Vector_impl" = type { %"struct.std::_Vector_base<std::unique_ptr<ade::ExecutionBackend>, std::allocator<std::unique_ptr<ade::ExecutionBackend>>>::_Vector_impl_data" }
%"struct.std::_Vector_base<std::unique_ptr<ade::ExecutionBackend>, std::allocator<std::unique_ptr<ade::ExecutionBackend>>>::_Vector_impl_data" = type { ptr, ptr, ptr }
%"struct.ade::ExecutionEngine::CallbackList" = type { %"class.std::vector.109" }
%"class.std::vector.109" = type { %"struct.std::_Vector_base.110" }
%"struct.std::_Vector_base.110" = type { %"struct.std::_Vector_base<std::function<void (const ade::ExecutionEngine::PassDesc &, const ade::passes::PassContext &)>, std::allocator<std::function<void (const ade::ExecutionEngine::PassDesc &, const ade::passes::PassContext &)>>>::_Vector_impl" }
%"struct.std::_Vector_base<std::function<void (const ade::ExecutionEngine::PassDesc &, const ade::passes::PassContext &)>, std::allocator<std::function<void (const ade::ExecutionEngine::PassDesc &, const ade::passes::PassContext &)>>>::_Vector_impl" = type { %"struct.std::_Vector_base<std::function<void (const ade::ExecutionEngine::PassDesc &, const ade::passes::PassContext &)>, std::allocator<std::function<void (const ade::ExecutionEngine::PassDesc &, const ade::passes::PassContext &)>>>::_Vector_impl_data" }
%"struct.std::_Vector_base<std::function<void (const ade::ExecutionEngine::PassDesc &, const ade::passes::PassContext &)>, std::allocator<std::function<void (const ade::ExecutionEngine::PassDesc &, const ade::passes::PassContext &)>>>::_Vector_impl_data" = type { ptr, ptr, ptr }
%"struct.ade::ExecutionEngine::LazyPasses" = type { ptr, %"class.std::unordered_map.114" }
%"class.std::unordered_map.114" = type { %"class.std::_Hashtable.115" }
%"class.std::_Hashtable.115" = type { ptr, i64, %"struct.std::__detail::_Hash_node_base", i64, %"struct.std::__detail::_Prime_rehash_policy", ptr }
%"class.std::unordered_set" = type { %"class.std::_Hashtable.128" }
%"class.std::_Hashtable.128" = type { ptr, i64, %"struct.std::__detail::_Hash_node_base", i64, %"struct.std::__detail::_Prime_rehash_policy", ptr }
%"class.ade::PassManager" = type { %"class.std::__cxx11::list", %"class.std::unordered_map.144" }
%"class.std::__cxx11::list" = type { %"class.std::__cxx11::_List_base" }
%"class.std::__cxx11::_List_base" = type { %"struct.std::__cxx11::_List_base<std::pair<std::__cxx11::basic_string<char>, ade::PassList<ade::passes::PassContext>>, std::allocator<std::pair<std::__cxx11::basic_string<char>, ade::PassList<ade::passes::PassContext>>>>::_List_impl" }
%"struct.std::__cxx11::_List_base<std::pair<std::__cxx11::basic_string<char>, ade::PassList<ade::passes::PassContext>>, std::allocator<std::pair<std::__cxx11::basic_string<char>, ade::PassList<ade::passes::PassContext>>>>::_List_impl" = type { %"struct.std::__detail::_List_node_header" }
%"struct.std::__detail::_List_node_header" = type { %"struct.std::__detail::_List_node_base", i64 }
%"struct.std::__detail::_List_node_base" = type { ptr, ptr }
%"class.std::unordered_map.144" = type { %"class.std::_Hashtable.145" }
%"class.std::_Hashtable.145" = type { ptr, i64, %"struct.std::__detail::_Hash_node_base", i64, %"struct.std::__detail::_Prime_rehash_policy", ptr }
%"class.cv::GKernelPackage" = type { %"class.std::unordered_map.158", %"class.std::vector.172" }
%"class.std::unordered_map.158" = type { %"class.std::_Hashtable.159" }
%"class.std::_Hashtable.159" = type { ptr, i64, %"struct.std::__detail::_Hash_node_base", i64, %"struct.std::__detail::_Prime_rehash_policy", ptr }
%"class.std::vector.172" = type { %"struct.std::_Vector_base.173" }
%"struct.std::_Vector_base.173" = type { %"struct.std::_Vector_base<cv::GTransform, std::allocator<cv::GTransform>>::_Vector_impl" }
%"struct.std::_Vector_base<cv::GTransform, std::allocator<cv::GTransform>>::_Vector_impl" = type { %"struct.std::_Vector_base<cv::GTransform, std::allocator<cv::GTransform>>::_Vector_impl_data" }
%"struct.std::_Vector_base<cv::GTransform, std::allocator<cv::GTransform>>::_Vector_impl_data" = type { ptr, ptr, ptr }
%"struct.cv::gapi::GNetPackage" = type { %"class.std::vector.177" }
%"class.std::vector.177" = type { %"struct.std::_Vector_base.178" }
%"struct.std::_Vector_base.178" = type { %"struct.std::_Vector_base<cv::gapi::GNetParam, std::allocator<cv::gapi::GNetParam>>::_Vector_impl" }
%"struct.std::_Vector_base<cv::gapi::GNetParam, std::allocator<cv::gapi::GNetParam>>::_Vector_impl" = type { %"struct.std::_Vector_base<cv::gapi::GNetParam, std::allocator<cv::gapi::GNetParam>>::_Vector_impl_data" }
%"struct.std::_Vector_base<cv::gapi::GNetParam, std::allocator<cv::gapi::GNetParam>>::_Vector_impl_data" = type { ptr, ptr, ptr }
%"class.std::vector.182" = type { %"struct.std::_Vector_base.183" }
%"struct.std::_Vector_base.183" = type { %"struct.std::_Vector_base<std::unique_ptr<ade::Graph>, std::allocator<std::unique_ptr<ade::Graph>>>::_Vector_impl" }
%"struct.std::_Vector_base<std::unique_ptr<ade::Graph>, std::allocator<std::unique_ptr<ade::Graph>>>::_Vector_impl" = type { %"struct.std::_Vector_base<std::unique_ptr<ade::Graph>, std::allocator<std::unique_ptr<ade::Graph>>>::_Vector_impl_data" }
%"struct.std::_Vector_base<std::unique_ptr<ade::Graph>, std::allocator<std::unique_ptr<ade::Graph>>>::_Vector_impl_data" = type { ptr, ptr, ptr }
%"class.cv::GStreamingCompiled" = type { %"class.std::shared_ptr.187" }
%"class.std::shared_ptr.187" = type { %"class.std::__shared_ptr.188" }
%"class.std::__shared_ptr.188" = type { ptr, %"class.std::__shared_count" }

; Function Attrs: mustprogress uwtable
define void @_ZN2cv12GComputation16compileStreamingEOSt6vectorINS_4util7variantIJNS2_9monostateENS_8GMatDescENS_11GScalarDescENS_10GArrayDescENS_11GOpaqueDescENS_10GFrameDescEEEESaISA_EEOS1_INS_11GCompileArgESaISE_EE(ptr dead_on_unwind noalias writable sret(%"class.cv::GStreamingCompiled") align 8 %0, ptr noundef nonnull align 8 dereferenceable(16) %1, ptr noundef nonnull align 8 dereferenceable(24) %2, ptr noundef nonnull align 8 dereferenceable(24) %3) #4 align 2 personality ptr @__gxx_personality_v0 {
  %5 = alloca ptr, align 8
  %6 = alloca ptr, align 8
  %7 = alloca ptr, align 8
  %8 = alloca ptr, align 8
  %9 = alloca %"class.cv::gimpl::GCompiler", align 8
  %10 = alloca ptr, align 8
  %11 = alloca i32, align 4
  store ptr %0, ptr %5, align 8
  store ptr %1, ptr %6, align 8, !tbaa !3
  store ptr %2, ptr %7, align 8, !tbaa !80
  store ptr %3, ptr %8, align 8, !tbaa !82
  %12 = load ptr, ptr %6, align 8
  call void @llvm.lifetime.start.p0(i64 456, ptr %9) #3
  %13 = load ptr, ptr %7, align 8, !tbaa !80
  %14 = load ptr, ptr %8, align 8, !tbaa !82
  call void @_ZN2cv5gimpl9GCompilerC1ERKNS_12GComputationEOSt6vectorINS_4util7variantIJNS6_9monostateENS_8GMatDescENS_11GScalarDescENS_10GArrayDescENS_11GOpaqueDescENS_10GFrameDescEEEESaISE_EEOS5_INS_11GCompileArgESaISI_EE(ptr noundef nonnull align 8 dereferenceable(456) %9, ptr noundef nonnull align 8 dereferenceable(16) %12, ptr noundef nonnull align 8 dereferenceable(24) %13, ptr noundef nonnull align 8 dereferenceable(24) %14)
  invoke void @_ZN2cv5gimpl9GCompiler16compileStreamingEv(ptr dead_on_unwind writable sret(%"class.cv::GStreamingCompiled") align 8 %0, ptr noundef nonnull align 8 dereferenceable(456) %9)
          to label %15 unwind label %16

15:                                               ; preds = %4
  call void @_ZN2cv5gimpl9GCompilerD2Ev(ptr noundef nonnull align 8 dereferenceable(456) %9) #3
  call void @llvm.lifetime.end.p0(i64 456, ptr %9) #3
  ret void

16:                                               ; preds = %4
  %17 = landingpad { ptr, i32 }
          cleanup
  %18 = extractvalue { ptr, i32 } %17, 0
  store ptr %18, ptr %10, align 8
  %19 = extractvalue { ptr, i32 } %17, 1
  store i32 %19, ptr %11, align 4
  call void @_ZN2cv5gimpl9GCompilerD2Ev(ptr noundef nonnull align 8 dereferenceable(456) %9) #3
  call void @llvm.lifetime.end.p0(i64 456, ptr %9) #3
  br label %20

20:                                               ; preds = %16
  %21 = load ptr, ptr %10, align 8
  %22 = load i32, ptr %11, align 4
  %23 = insertvalue { ptr, i32 } poison, ptr %21, 0
  %24 = insertvalue { ptr, i32 } %23, i32 %22, 1
  resume { ptr, i32 } %24
}