; Function Attrs: mustprogress uwtable
define void @_ZN2cv12GComputation16compileStreamingEOSt6vectorINS_4util7variantIJNS2_9monostateENS_8GMatDescENS_11GScalarDescENS_10GArrayDescENS_11GOpaqueDescENS_10GFrameDescEEEESaISA_EEOS1_INS_11GCompileArgESaISE_EE(ptr dead_on_unwind noalias writable sret(%"class.cv::GStreamingCompiled") align 8 %0, ptr noundef nonnull align 8 dereferenceable(16) %1, ptr noundef nonnull align 8 dereferenceable(24) %2, ptr noundef nonnull align 8 dereferenceable(24) %3) local_unnamed_addr #3 align 2 personality ptr @__gxx_personality_v0 {
  %5 = alloca %"class.cv::gimpl::GCompiler", align 8
  call void @llvm.lifetime.start.p0(i64 456, ptr nonnull %5) #26
  call void @_ZN2cv5gimpl9GCompilerC1ERKNS_12GComputationEOSt6vectorINS_4util7variantIJNS6_9monostateENS_8GMatDescENS_11GScalarDescENS_10GArrayDescENS_11GOpaqueDescENS_10GFrameDescEEEESaISE_EEOS5_INS_11GCompileArgESaISI_EE(ptr noundef nonnull align 8 dereferenceable(456) %5, ptr noundef nonnull align 8 dereferenceable(16) %1, ptr noundef nonnull align 8 dereferenceable(24) %2, ptr noundef nonnull align 8 dereferenceable(24) %3)
  invoke void @_ZN2cv5gimpl9GCompiler16compileStreamingEv(ptr dead_on_unwind writable sret(%"class.cv::GStreamingCompiled") align 8 %0, ptr noundef nonnull align 8 dereferenceable(456) %5)
          to label %6 unwind label %7

6:                                                ; preds = %4
  call void @_ZN2cv5gimpl9GCompilerD2Ev(ptr noundef nonnull align 8 dereferenceable(456) %5) #26
  call void @llvm.lifetime.end.p0(i64 456, ptr nonnull %5) #26
  ret void

7:                                                ; preds = %4
  %8 = landingpad { ptr, i32 }
          cleanup
  call void @_ZN2cv5gimpl9GCompilerD2Ev(ptr noundef nonnull align 8 dereferenceable(456) %5) #26
  call void @llvm.lifetime.end.p0(i64 456, ptr nonnull %5) #26
  resume { ptr, i32 } %8
}